target datalayout = "e-m:e-p270:32:32-p271:32:32-p272:64:64-i64:64-i128:128-f80:128-n8:16:32:64-S128"
target triple = "x86_64-pc-linux-gnu"

%struct.Jf_Par_t_ = type { i32, i32, i32, i32, i32, i32, i32, i32, i32, i32, i32, i32, i32, i32, i32, i32, i32, i32, i32, i32, i32, i32, i32, i32, i32, i32, i32, i32, i32, i32, i32, i32, i32, i32, i32, i32, i32, i32, i32, i32, i64, i64, i64, i64, i64, i64, i64, i64, i32, float, float, float, float, ptr, ptr }
%struct.Sfm_Par_t_ = type { i32, i32, i32, i32, i32, i32, i32, i32, i32, i32, i32, i32, i32, i32, i32, i32, i32, i32, i32, i32, i32, i32, i32, i32, i32, i32, i32, i32, i32, i32, i32 }

; Function Attrs: nounwind uwtable
define ptr @Gia_ManDoMuxMapping(ptr noundef %0) #0 {
  %2 = alloca ptr, align 8
  %3 = alloca ptr, align 8
  %4 = alloca ptr, align 8
  %5 = alloca %struct.Jf_Par_t_, align 8
  %6 = alloca ptr, align 8
  %7 = alloca i32, align 4
  %8 = alloca i32, align 4
  %9 = alloca %struct.Sfm_Par_t_, align 4
  %10 = alloca ptr, align 8
  store ptr %0, ptr %2, align 8, !tbaa !34
  call void @llvm.lifetime.start.p0(i64 8, ptr %3) #13
  call void @llvm.lifetime.start.p0(i64 8, ptr %4) #13
  %11 = load ptr, ptr %2, align 8, !tbaa !34
  %12 = call ptr @Gia_ManDup(ptr noundef %11)
  store ptr %12, ptr %4, align 8, !tbaa !34
  call void @llvm.lifetime.start.p0(i64 264, ptr %5) #13
  call void @llvm.lifetime.start.p0(i64 8, ptr %6) #13
  store ptr %5, ptr %6, align 8, !tbaa !140
  call void @llvm.lifetime.start.p0(i64 4, ptr %7) #13
  call void @llvm.lifetime.start.p0(i64 4, ptr %8) #13
  store i32 2, ptr %8, align 4, !tbaa !14
  call void @llvm.lifetime.start.p0(i64 124, ptr %9) #13
  call void @llvm.lifetime.start.p0(i64 8, ptr %10) #13
  store ptr %9, ptr %10, align 8, !tbaa !142
  %13 = load ptr, ptr %6, align 8, !tbaa !140
  call void @Lf_ManSetDefaultPars(ptr noundef %13)
  %14 = load ptr, ptr %10, align 8, !tbaa !142
  call void @Sfm_ParSetDefault(ptr noundef %14)
  %15 = load ptr, ptr %10, align 8, !tbaa !142
  %16 = getelementptr inbounds nuw %struct.Sfm_Par_t_, ptr %15, i32 0, i32 0
  store i32 5, ptr %16, align 4, !tbaa !144
  %17 = load ptr, ptr %10, align 8, !tbaa !142
  %18 = getelementptr inbounds nuw %struct.Sfm_Par_t_, ptr %17, i32 0, i32 3
  store i32 100, ptr %18, align 4, !tbaa !146
  %19 = load ptr, ptr %10, align 8, !tbaa !142
  %20 = getelementptr inbounds nuw %struct.Sfm_Par_t_, ptr %19, i32 0, i32 8
  store i32 2000, ptr %20, align 4, !tbaa !147
  store i32 0, ptr %7, align 4, !tbaa !14
  br label %21

21:                                               ; preds = %43, %1
  %22 = load i32, ptr %7, align 4, !tbaa !14
  %23 = load i32, ptr %8, align 4, !tbaa !14
  %24 = icmp slt i32 %22, %23
  br i1 %24, label %25, label %46

25:                                               ; preds = %21
  %26 = load ptr, ptr %4, align 8, !tbaa !34
  store ptr %26, ptr %3, align 8, !tbaa !34
  %27 = load ptr, ptr %6, align 8, !tbaa !140
  %28 = call ptr @Lf_ManPerformMapping(ptr noundef %26, ptr noundef %27)
  store ptr %28, ptr %4, align 8, !tbaa !34
  %29 = load ptr, ptr %3, align 8, !tbaa !34
  call void @Gia_ManStop(ptr noundef %29)
  %30 = load ptr, ptr %4, align 8, !tbaa !34
  store ptr %30, ptr %3, align 8, !tbaa !34
  %31 = load ptr, ptr %10, align 8, !tbaa !142
  %32 = call ptr @Gia_ManPerformMfs(ptr noundef %30, ptr noundef %31)
  store ptr %32, ptr %4, align 8, !tbaa !34
  %33 = load ptr, ptr %3, align 8, !tbaa !34
  call void @Gia_ManStop(ptr noundef %33)
  %34 = load i32, ptr %7, align 4, !tbaa !14
  %35 = load i32, ptr %8, align 4, !tbaa !14
  %36 = sub nsw i32 %35, 1
  %37 = icmp eq i32 %34, %36
  br i1 %37, label %38, label %39

38:                                               ; preds = %25
  br label %46

39:                                               ; preds = %25
  %40 = load ptr, ptr %4, align 8, !tbaa !34
  store ptr %40, ptr %3, align 8, !tbaa !34
  %41 = call ptr @Dsm_ManDeriveGia(ptr noundef %40, i32 noundef 0)
  store ptr %41, ptr %4, align 8, !tbaa !34
  %42 = load ptr, ptr %3, align 8, !tbaa !34
  call void @Gia_ManStop(ptr noundef %42)
  br label %43

43:                                               ; preds = %39
  %44 = load i32, ptr %7, align 4, !tbaa !14
  %45 = add nsw i32 %44, 1
  store i32 %45, ptr %7, align 4, !tbaa !14
  br label %21, !llvm.loop !148

46:                                               ; preds = %38, %21
  %47 = load ptr, ptr %4, align 8, !tbaa !34
  call void @llvm.lifetime.end.p0(i64 8, ptr %10) #13
  call void @llvm.lifetime.end.p0(i64 124, ptr %9) #13
  call void @llvm.lifetime.end.p0(i64 4, ptr %8) #13
  call void @llvm.lifetime.end.p0(i64 4, ptr %7) #13
  call void @llvm.lifetime.end.p0(i64 8, ptr %6) #13
  call void @llvm.lifetime.end.p0(i64 264, ptr %5) #13
  call void @llvm.lifetime.end.p0(i64 8, ptr %4) #13
  call void @llvm.lifetime.end.p0(i64 8, ptr %3) #13
  ret ptr %47
}