; Function Attrs: nounwind uwtable
define ptr @Gia_ManDoMuxMapping(ptr noundef %0) local_unnamed_addr #0 {
  %2 = alloca %struct.Jf_Par_t_, align 8
  %3 = alloca %struct.Sfm_Par_t_, align 4
  %4 = tail call ptr @Gia_ManDup(ptr noundef %0) #24
  call void @llvm.lifetime.start.p0(i64 264, ptr nonnull %2) #24
  call void @llvm.lifetime.start.p0(i64 124, ptr nonnull %3) #24
  call void @Lf_ManSetDefaultPars(ptr noundef nonnull %2) #24
  call void @Sfm_ParSetDefault(ptr noundef nonnull %3) #24
  store i32 5, ptr %3, align 4, !tbaa !127
  %5 = getelementptr inbounds nuw i8, ptr %3, i64 12
  store i32 100, ptr %5, align 4, !tbaa !129
  %6 = getelementptr inbounds nuw i8, ptr %3, i64 32
  store i32 2000, ptr %6, align 4, !tbaa !130
  %7 = call ptr @Lf_ManPerformMapping(ptr noundef %4, ptr noundef nonnull %2) #24
  call void @Gia_ManStop(ptr noundef %4) #24
  %8 = call ptr @Gia_ManPerformMfs(ptr noundef %7, ptr noundef nonnull %3) #24
  call void @Gia_ManStop(ptr noundef %7) #24
  %9 = call ptr @Dsm_ManDeriveGia(ptr noundef %8, i32 noundef 0) #24
  call void @Gia_ManStop(ptr noundef %8) #24
  %10 = call ptr @Lf_ManPerformMapping(ptr noundef %9, ptr noundef nonnull %2) #24
  call void @Gia_ManStop(ptr noundef %9) #24
  %11 = call ptr @Gia_ManPerformMfs(ptr noundef %10, ptr noundef nonnull %3) #24
  call void @Gia_ManStop(ptr noundef %10) #24
  call void @llvm.lifetime.end.p0(i64 124, ptr nonnull %3) #24
  call void @llvm.lifetime.end.p0(i64 264, ptr nonnull %2) #24
  ret ptr %11
}